target datalayout = "e-m:e-p270:32:32-p271:32:32-p272:64:64-i64:64-i128:128-f80:128-n8:16:32:64-S128"
target triple = "x86_64-pc-linux-gnu"

%struct.parse = type { ptr, ptr, i32, ptr, i64, i64, i32, ptr, [10 x i64], [10 x i64] }
%struct.re_guts = type { i32, ptr, i32, i32, ptr, ptr, i32, i64, i64, i64, i32, i32, i32, i32, ptr, ptr, i32, i64, i32, i64, [1 x i8] }

@nuls = internal global [10 x i8] zeroinitializer, align 1

; Function Attrs: nounwind uwtable
define internal i32 @seterr(ptr noundef %0, i32 noundef %1) #0 {
  %3 = alloca ptr, align 8
  %4 = alloca i32, align 4
  store ptr %0, ptr %3, align 8
  store i32 %1, ptr %4, align 4
  %5 = load ptr, ptr %3, align 8
  %6 = getelementptr inbounds nuw %struct.parse, ptr %5, i32 0, i32 2
  %7 = load i32, ptr %6, align 8
  %8 = icmp eq i32 %7, 0
  br i1 %8, label %9, label %13

9:                                                ; preds = %2
  %10 = load i32, ptr %4, align 4
  %11 = load ptr, ptr %3, align 8
  %12 = getelementptr inbounds nuw %struct.parse, ptr %11, i32 0, i32 2
  store i32 %10, ptr %12, align 8
  br label %13

13:                                               ; preds = %9, %2
  %14 = load ptr, ptr %3, align 8
  %15 = getelementptr inbounds nuw %struct.parse, ptr %14, i32 0, i32 0
  store ptr @nuls, ptr %15, align 8
  %16 = load ptr, ptr %3, align 8
  %17 = getelementptr inbounds nuw %struct.parse, ptr %16, i32 0, i32 1
  store ptr @nuls, ptr %17, align 8
  ret i32 0
}

; Function Attrs: nounwind uwtable
define internal void @enlarge(ptr noundef %0, i64 noundef %1) #0 {
  %3 = alloca ptr, align 8
  %4 = alloca i64, align 8
  %5 = alloca ptr, align 8
  store ptr %0, ptr %3, align 8
  store i64 %1, ptr %4, align 8
  %6 = load ptr, ptr %3, align 8
  %7 = getelementptr inbounds nuw %struct.parse, ptr %6, i32 0, i32 4
  %8 = load i64, ptr %7, align 8
  %9 = load i64, ptr %4, align 8
  %10 = icmp sge i64 %8, %9
  br i1 %10, label %11, label %12

11:                                               ; preds = %2
  br label %37

12:                                               ; preds = %2
  %13 = load i64, ptr %4, align 8
  %14 = icmp ugt i64 %13, 2305843009213693951
  br i1 %14, label %15, label %18

15:                                               ; preds = %12
  %16 = load ptr, ptr %3, align 8
  %17 = call i32 @seterr(ptr noundef %16, i32 noundef 12)
  br label %37

18:                                               ; preds = %12
  %19 = load ptr, ptr %3, align 8
  %20 = getelementptr inbounds nuw %struct.parse, ptr %19, i32 0, i32 3
  %21 = load ptr, ptr %20, align 8
  %22 = load i64, ptr %4, align 8
  %23 = mul i64 %22, 8
  %24 = call ptr @realloc(ptr noundef %21, i64 noundef %23) #14
  store ptr %24, ptr %5, align 8
  %25 = load ptr, ptr %5, align 8
  %26 = icmp eq ptr %25, null
  br i1 %26, label %27, label %30

27:                                               ; preds = %18
  %28 = load ptr, ptr %3, align 8
  %29 = call i32 @seterr(ptr noundef %28, i32 noundef 12)
  br label %37

30:                                               ; preds = %18
  %31 = load ptr, ptr %5, align 8
  %32 = load ptr, ptr %3, align 8
  %33 = getelementptr inbounds nuw %struct.parse, ptr %32, i32 0, i32 3
  store ptr %31, ptr %33, align 8
  %34 = load i64, ptr %4, align 8
  %35 = load ptr, ptr %3, align 8
  %36 = getelementptr inbounds nuw %struct.parse, ptr %35, i32 0, i32 4
  store i64 %34, ptr %36, align 8
  br label %37

37:                                               ; preds = %30, %27, %15, %11
  ret void
}

; Function Attrs: nounwind uwtable
define internal void @doemit(ptr noundef %0, i64 noundef %1, i64 noundef %2) #0 {
  %4 = alloca ptr, align 8
  %5 = alloca i64, align 8
  %6 = alloca i64, align 8
  store ptr %0, ptr %4, align 8
  store i64 %1, ptr %5, align 8
  store i64 %2, ptr %6, align 8
  %7 = load ptr, ptr %4, align 8
  %8 = getelementptr inbounds nuw %struct.parse, ptr %7, i32 0, i32 2
  %9 = load i32, ptr %8, align 8
  %10 = icmp ne i32 %9, 0
  br i1 %10, label %11, label %12

11:                                               ; preds = %3
  br label %40

12:                                               ; preds = %3
  %13 = load ptr, ptr %4, align 8
  %14 = getelementptr inbounds nuw %struct.parse, ptr %13, i32 0, i32 5
  %15 = load i64, ptr %14, align 8
  %16 = load ptr, ptr %4, align 8
  %17 = getelementptr inbounds nuw %struct.parse, ptr %16, i32 0, i32 4
  %18 = load i64, ptr %17, align 8
  %19 = icmp sge i64 %15, %18
  br i1 %19, label %20, label %28

20:                                               ; preds = %12
  %21 = load ptr, ptr %4, align 8
  %22 = load ptr, ptr %4, align 8
  %23 = getelementptr inbounds nuw %struct.parse, ptr %22, i32 0, i32 4
  %24 = load i64, ptr %23, align 8
  %25 = add nsw i64 %24, 1
  %26 = sdiv i64 %25, 2
  %27 = mul nsw i64 %26, 3
  call void @enlarge(ptr noundef %21, i64 noundef %27)
  br label %28

28:                                               ; preds = %20, %12
  %29 = load i64, ptr %5, align 8
  %30 = load i64, ptr %6, align 8
  %31 = or i64 %29, %30
  %32 = load ptr, ptr %4, align 8
  %33 = getelementptr inbounds nuw %struct.parse, ptr %32, i32 0, i32 3
  %34 = load ptr, ptr %33, align 8
  %35 = load ptr, ptr %4, align 8
  %36 = getelementptr inbounds nuw %struct.parse, ptr %35, i32 0, i32 5
  %37 = load i64, ptr %36, align 8
  %38 = add nsw i64 %37, 1
  store i64 %38, ptr %36, align 8
  %39 = getelementptr inbounds i64, ptr %34, i64 %37
  store i64 %31, ptr %39, align 8
  br label %40

40:                                               ; preds = %28, %11
  ret void
}

; Function Attrs: nounwind uwtable
define internal void @bothcases(ptr noundef %0, i32 noundef %1) #0 {
  %3 = alloca ptr, align 8
  %4 = alloca i32, align 4
  %5 = alloca ptr, align 8
  %6 = alloca ptr, align 8
  %7 = alloca [3 x i8], align 1
  store ptr %0, ptr %3, align 8
  store i32 %1, ptr %4, align 4
  %8 = load ptr, ptr %3, align 8
  %9 = getelementptr inbounds nuw %struct.parse, ptr %8, i32 0, i32 0
  %10 = load ptr, ptr %9, align 8
  store ptr %10, ptr %5, align 8
  %11 = load ptr, ptr %3, align 8
  %12 = getelementptr inbounds nuw %struct.parse, ptr %11, i32 0, i32 1
  %13 = load ptr, ptr %12, align 8
  store ptr %13, ptr %6, align 8
  %14 = load i32, ptr %4, align 4
  %15 = trunc i32 %14 to i8
  %16 = zext i8 %15 to i32
  store i32 %16, ptr %4, align 4
  %17 = getelementptr inbounds [3 x i8], ptr %7, i64 0, i64 0
  %18 = load ptr, ptr %3, align 8
  %19 = getelementptr inbounds nuw %struct.parse, ptr %18, i32 0, i32 0
  store ptr %17, ptr %19, align 8
  %20 = getelementptr inbounds [3 x i8], ptr %7, i64 0, i64 0
  %21 = getelementptr inbounds i8, ptr %20, i64 2
  %22 = load ptr, ptr %3, align 8
  %23 = getelementptr inbounds nuw %struct.parse, ptr %22, i32 0, i32 1
  store ptr %21, ptr %23, align 8
  %24 = load i32, ptr %4, align 4
  %25 = trunc i32 %24 to i8
  %26 = getelementptr inbounds [3 x i8], ptr %7, i64 0, i64 0
  store i8 %25, ptr %26, align 1
  %27 = getelementptr inbounds [3 x i8], ptr %7, i64 0, i64 1
  store i8 93, ptr %27, align 1
  %28 = getelementptr inbounds [3 x i8], ptr %7, i64 0, i64 2
  store i8 0, ptr %28, align 1
  %29 = load ptr, ptr %3, align 8
  call void @p_bracket(ptr noundef %29)
  %30 = load ptr, ptr %5, align 8
  %31 = load ptr, ptr %3, align 8
  %32 = getelementptr inbounds nuw %struct.parse, ptr %31, i32 0, i32 0
  store ptr %30, ptr %32, align 8
  %33 = load ptr, ptr %6, align 8
  %34 = load ptr, ptr %3, align 8
  %35 = getelementptr inbounds nuw %struct.parse, ptr %34, i32 0, i32 1
  store ptr %33, ptr %35, align 8
  ret void
}

; Function Attrs: nounwind uwtable
define internal signext i8 @othercase(i32 noundef %0) #0 {
  %2 = alloca i8, align 1
  %3 = alloca i32, align 4
  store i32 %0, ptr %3, align 4
  %4 = load i32, ptr %3, align 4
  %5 = trunc i32 %4 to i8
  %6 = zext i8 %5 to i32
  store i32 %6, ptr %3, align 4
  %7 = call ptr @__ctype_b_loc() #15
  %8 = load ptr, ptr %7, align 8
  %9 = load i32, ptr %3, align 4
  %10 = sext i32 %9 to i64
  %11 = getelementptr inbounds i16, ptr %8, i64 %10
  %12 = load i16, ptr %11, align 2
  %13 = zext i16 %12 to i32
  %14 = and i32 %13, 256
  %15 = icmp ne i32 %14, 0
  br i1 %15, label %16, label %20

16:                                               ; preds = %1
  %17 = load i32, ptr %3, align 4
  %18 = call i32 @tolower(i32 noundef %17) #10
  %19 = trunc i32 %18 to i8
  store i8 %19, ptr %2, align 1
  br label %37

20:                                               ; preds = %1
  %21 = call ptr @__ctype_b_loc() #15
  %22 = load ptr, ptr %21, align 8
  %23 = load i32, ptr %3, align 4
  %24 = sext i32 %23 to i64
  %25 = getelementptr inbounds i16, ptr %22, i64 %24
  %26 = load i16, ptr %25, align 2
  %27 = zext i16 %26 to i32
  %28 = and i32 %27, 512
  %29 = icmp ne i32 %28, 0
  br i1 %29, label %30, label %34

30:                                               ; preds = %20
  %31 = load i32, ptr %3, align 4
  %32 = call i32 @toupper(i32 noundef %31) #10
  %33 = trunc i32 %32 to i8
  store i8 %33, ptr %2, align 1
  br label %37

34:                                               ; preds = %20
  %35 = load i32, ptr %3, align 4
  %36 = trunc i32 %35 to i8
  store i8 %36, ptr %2, align 1
  br label %37

37:                                               ; preds = %34, %30, %16
  %38 = load i8, ptr %2, align 1
  ret i8 %38
}

; Function Attrs: nounwind uwtable
define internal void @ordinary(ptr noundef %0, i32 noundef %1) #0 {
  %3 = alloca ptr, align 8
  %4 = alloca i32, align 4
  %5 = alloca ptr, align 8
  store ptr %0, ptr %3, align 8
  store i32 %1, ptr %4, align 4
  %6 = load ptr, ptr %3, align 8
  %7 = getelementptr inbounds nuw %struct.parse, ptr %6, i32 0, i32 7
  %8 = load ptr, ptr %7, align 8
  %9 = getelementptr inbounds nuw %struct.re_guts, ptr %8, i32 0, i32 14
  %10 = load ptr, ptr %9, align 8
  store ptr %10, ptr %5, align 8
  %11 = load ptr, ptr %3, align 8
  %12 = getelementptr inbounds nuw %struct.parse, ptr %11, i32 0, i32 7
  %13 = load ptr, ptr %12, align 8
  %14 = getelementptr inbounds nuw %struct.re_guts, ptr %13, i32 0, i32 6
  %15 = load i32, ptr %14, align 8
  %16 = and i32 %15, 2
  %17 = icmp ne i32 %16, 0
  br i1 %17, label %18, label %39

18:                                               ; preds = %2
  %19 = call ptr @__ctype_b_loc() #15
  %20 = load ptr, ptr %19, align 8
  %21 = load i32, ptr %4, align 4
  %22 = trunc i32 %21 to i8
  %23 = zext i8 %22 to i32
  %24 = sext i32 %23 to i64
  %25 = getelementptr inbounds i16, ptr %20, i64 %24
  %26 = load i16, ptr %25, align 2
  %27 = zext i16 %26 to i32
  %28 = and i32 %27, 1024
  %29 = icmp ne i32 %28, 0
  br i1 %29, label %30, label %39

30:                                               ; preds = %18
  %31 = load i32, ptr %4, align 4
  %32 = call signext i8 @othercase(i32 noundef %31)
  %33 = sext i8 %32 to i32
  %34 = load i32, ptr %4, align 4
  %35 = icmp ne i32 %33, %34
  br i1 %35, label %36, label %39

36:                                               ; preds = %30
  %37 = load ptr, ptr %3, align 8
  %38 = load i32, ptr %4, align 4
  call void @bothcases(ptr noundef %37, i32 noundef %38)
  br label %64

39:                                               ; preds = %30, %18, %2
  %40 = load ptr, ptr %3, align 8
  %41 = load i32, ptr %4, align 4
  %42 = trunc i32 %41 to i8
  %43 = zext i8 %42 to i64
  call void @doemit(ptr noundef %40, i64 noundef 268435456, i64 noundef %43)
  %44 = load ptr, ptr %5, align 8
  %45 = load i32, ptr %4, align 4
  %46 = sext i32 %45 to i64
  %47 = getelementptr inbounds i8, ptr %44, i64 %46
  %48 = load i8, ptr %47, align 1
  %49 = zext i8 %48 to i32
  %50 = icmp eq i32 %49, 0
  br i1 %50, label %51, label %63

51:                                               ; preds = %39
  %52 = load ptr, ptr %3, align 8
  %53 = getelementptr inbounds nuw %struct.parse, ptr %52, i32 0, i32 7
  %54 = load ptr, ptr %53, align 8
  %55 = getelementptr inbounds nuw %struct.re_guts, ptr %54, i32 0, i32 13
  %56 = load i32, ptr %55, align 4
  %57 = add nsw i32 %56, 1
  store i32 %57, ptr %55, align 4
  %58 = trunc i32 %56 to i8
  %59 = load ptr, ptr %5, align 8
  %60 = load i32, ptr %4, align 4
  %61 = sext i32 %60 to i64
  %62 = getelementptr inbounds i8, ptr %59, i64 %61
  store i8 %58, ptr %62, align 1
  br label %63

63:                                               ; preds = %51, %39
  br label %64

64:                                               ; preds = %63, %36
  ret void
}