; Function Attrs: nounwind uwtable
define internal fastcc void @ordinary(ptr noundef nonnull %0, i32 noundef %1) unnamed_addr #0 {
  %3 = alloca [3 x i8], align 1
  %4 = getelementptr inbounds nuw i8, ptr %0, i64 56
  %5 = load ptr, ptr %4, align 8
  %6 = getelementptr inbounds nuw i8, ptr %5, i64 88
  %7 = load ptr, ptr %6, align 8
  %8 = getelementptr inbounds nuw i8, ptr %5, i64 40
  %9 = load i32, ptr %8, align 8
  %10 = and i32 %9, 2
  %.not = icmp eq i32 %10, 0
  br i1 %.not, label %._crit_edge, label %11

._crit_edge:                                      ; preds = %2
  %.pre = and i32 %1, 255
  br label %36

11:                                               ; preds = %2
  %12 = tail call ptr @__ctype_b_loc() #19
  %13 = load ptr, ptr %12, align 8
  %14 = and i32 %1, 255
  %15 = zext nneg i32 %14 to i64
  %16 = getelementptr inbounds nuw i16, ptr %13, i64 %15
  %17 = load i16, ptr %16, align 2
  %18 = and i16 %17, 1024
  %.not13 = icmp eq i16 %18, 0
  br i1 %.not13, label %36, label %19

19:                                               ; preds = %11
  %20 = zext i16 %17 to i32
  %21 = and i32 %20, 256
  %.not.i = icmp eq i32 %21, 0
  br i1 %.not.i, label %24, label %22

22:                                               ; preds = %19
  %23 = tail call i32 @tolower(i32 noundef %14) #14
  br label %othercase.exit

24:                                               ; preds = %19
  %25 = and i32 %20, 512
  %.not7.i = icmp eq i32 %25, 0
  br i1 %.not7.i, label %othercase.exit, label %26

26:                                               ; preds = %24
  %27 = tail call i32 @toupper(i32 noundef %14) #14
  br label %othercase.exit

othercase.exit:                                   ; preds = %22, %24, %26
  %.0.in.i = phi i32 [ %23, %22 ], [ %27, %26 ], [ %1, %24 ]
  %sext = shl i32 %.0.in.i, 24
  %28 = ashr exact i32 %sext, 24
  %.not14 = icmp eq i32 %1, %28
  br i1 %.not14, label %36, label %29

29:                                               ; preds = %othercase.exit
  call void @llvm.lifetime.start.p0(i64 3, ptr nonnull %3)
  %30 = load ptr, ptr %0, align 8
  %31 = getelementptr inbounds nuw i8, ptr %0, i64 8
  %32 = load ptr, ptr %31, align 8
  %33 = trunc i32 %1 to i8
  store ptr %3, ptr %0, align 8
  %34 = getelementptr inbounds nuw i8, ptr %3, i64 2
  store ptr %34, ptr %31, align 8
  store i8 %33, ptr %3, align 1
  %35 = getelementptr inbounds nuw i8, ptr %3, i64 1
  store i8 93, ptr %35, align 1
  store i8 0, ptr %34, align 1
  call fastcc void @p_bracket(ptr noundef nonnull %0) #20
  store ptr %30, ptr %0, align 8
  store ptr %32, ptr %31, align 8
  call void @llvm.lifetime.end.p0(i64 3, ptr nonnull %3)
  br label %80

36:                                               ; preds = %._crit_edge, %othercase.exit, %11
  %.pre-phi = phi i32 [ %.pre, %._crit_edge ], [ %14, %othercase.exit ], [ %14, %11 ]
  %37 = getelementptr inbounds nuw i8, ptr %0, i64 16
  %38 = load i32, ptr %37, align 8
  %.not.i15 = icmp eq i32 %38, 0
  br i1 %.not.i15, label %39, label %doemit.exit

39:                                               ; preds = %36
  %40 = getelementptr inbounds nuw i8, ptr %0, i64 40
  %41 = load i64, ptr %40, align 8
  %42 = getelementptr inbounds nuw i8, ptr %0, i64 32
  %43 = load i64, ptr %42, align 8
  %.not8.i = icmp slt i64 %41, %43
  br i1 %.not8.i, label %enlarge.exit.i, label %44

44:                                               ; preds = %39
  %45 = add nsw i64 %43, 1
  %46 = sdiv i64 %45, 2
  %47 = mul nsw i64 %46, 3
  %.not.i.i = icmp slt i64 %43, %47
  br i1 %.not.i.i, label %48, label %enlarge.exit.i

48:                                               ; preds = %44
  %49 = icmp ugt i64 %47, 2305843009213693951
  br i1 %49, label %seterr.exit.i.i, label %51

seterr.exit.i.i:                                  ; preds = %48
  store i32 12, ptr %37, align 8
  store ptr @nuls, ptr %0, align 8
  %50 = getelementptr inbounds nuw i8, ptr %0, i64 8
  store ptr @nuls, ptr %50, align 8
  br label %enlarge.exit.i

51:                                               ; preds = %48
  %52 = getelementptr inbounds nuw i8, ptr %0, i64 24
  %53 = load ptr, ptr %52, align 8
  %54 = mul i64 %46, 24
  %55 = tail call ptr @realloc(ptr noundef %53, i64 noundef %54) #18
  %56 = icmp eq ptr %55, null
  br i1 %56, label %57, label %62

57:                                               ; preds = %51
  %58 = load i32, ptr %37, align 8
  %59 = icmp eq i32 %58, 0
  br i1 %59, label %60, label %seterr.exit12.i.i

60:                                               ; preds = %57
  store i32 12, ptr %37, align 8
  br label %seterr.exit12.i.i

seterr.exit12.i.i:                                ; preds = %60, %57
  store ptr @nuls, ptr %0, align 8
  %61 = getelementptr inbounds nuw i8, ptr %0, i64 8
  store ptr @nuls, ptr %61, align 8
  br label %enlarge.exit.i

62:                                               ; preds = %51
  store ptr %55, ptr %52, align 8
  store i64 %47, ptr %42, align 8
  br label %enlarge.exit.i

enlarge.exit.i:                                   ; preds = %62, %seterr.exit12.i.i, %seterr.exit.i.i, %44, %39
  %63 = or disjoint i32 %.pre-phi, 268435456
  %64 = zext nneg i32 %63 to i64
  %65 = getelementptr inbounds nuw i8, ptr %0, i64 24
  %66 = load ptr, ptr %65, align 8
  %67 = load i64, ptr %40, align 8
  %68 = add nsw i64 %67, 1
  store i64 %68, ptr %40, align 8
  %69 = getelementptr inbounds i64, ptr %66, i64 %67
  store i64 %64, ptr %69, align 8
  br label %doemit.exit

doemit.exit:                                      ; preds = %36, %enlarge.exit.i
  %70 = sext i32 %1 to i64
  %71 = getelementptr inbounds i8, ptr %7, i64 %70
  %72 = load i8, ptr %71, align 1
  %73 = icmp eq i8 %72, 0
  br i1 %73, label %74, label %80

74:                                               ; preds = %doemit.exit
  %75 = load ptr, ptr %4, align 8
  %76 = getelementptr inbounds nuw i8, ptr %75, i64 84
  %77 = load i32, ptr %76, align 4
  %78 = add nsw i32 %77, 1
  store i32 %78, ptr %76, align 4
  %79 = trunc i32 %77 to i8
  store i8 %79, ptr %71, align 1
  br label %80

80:                                               ; preds = %doemit.exit, %74, %29
  ret void
}